target datalayout = "e-m:e-p270:32:32-p271:32:32-p272:64:64-i64:64-i128:128-f80:128-n8:16:32:64-S128"
target triple = "x86_64-unknown-linux-gnu"

%"class.std::__cxx11::basic_string" = type { %"struct.std::__cxx11::basic_string<char>::_Alloc_hider", i64, %union.anon }
%"struct.std::__cxx11::basic_string<char>::_Alloc_hider" = type { ptr }
%union.anon = type { i64, [8 x i8] }
%"class.google::protobuf::TextFormat::FieldValuePrinter" = type { ptr, %"class.google::protobuf::TextFormat::FastFieldValuePrinter" }
%"class.google::protobuf::TextFormat::FastFieldValuePrinter" = type { ptr }
%"class.google::protobuf::(anonymous namespace)::StringBaseTextGenerator" = type { %"class.google::protobuf::TextFormat::BaseTextGenerator", %"class.std::__cxx11::basic_string" }
%"class.google::protobuf::TextFormat::BaseTextGenerator" = type { ptr }

@.str.11 = private unnamed_addr constant [3 x i8] c"} \00", align 1
@.str.12 = private unnamed_addr constant [3 x i8] c"}\0A\00", align 1

; Function Attrs: mustprogress nounwind uwtable
define void @_ZN6google8protobuf10TextFormat17BaseTextGeneratorD2Ev(ptr noundef nonnull align 8 dereferenceable(8) %this) unnamed_addr #4 align 2 {
entry:
  %this.addr = alloca ptr, align 8
  store ptr %this, ptr %this.addr, align 8
  ret void
}

; Function Attrs: mustprogress uwtable
define linkonce_odr hidden void @_ZN6google8protobuf10TextFormat17BaseTextGenerator12PrintLiteralILm3EEEvRAT__Kc(ptr noundef nonnull align 8 dereferenceable(8) %this, ptr noundef nonnull align 1 dereferenceable(3) %text) #5 comdat align 2 {
entry:
  %this.addr = alloca ptr, align 8
  %text.addr = alloca ptr, align 8
  store ptr %this, ptr %this.addr, align 8
  store ptr %text, ptr %text.addr, align 8
  %this1 = load ptr, ptr %this.addr, align 8
  %0 = load ptr, ptr %text.addr, align 8
  %arraydecay = getelementptr inbounds [3 x i8], ptr %0, i64 0, i64 0
  %vtable = load ptr, ptr %this1, align 8
  %vfn = getelementptr inbounds ptr, ptr %vtable, i64 5
  %1 = load ptr, ptr %vfn, align 8
  call void %1(ptr noundef nonnull align 8 dereferenceable(8) %this1, ptr noundef %arraydecay, i64 noundef 2)
  ret void
}

; Function Attrs: mustprogress nounwind uwtable
define linkonce_odr hidden void @_ZN6google8protobuf10TextFormat17BaseTextGeneratorC2Ev(ptr noundef nonnull align 8 dereferenceable(8) %this) unnamed_addr #4 comdat align 2 {
entry:
  %this.addr = alloca ptr, align 8
  store ptr %this, ptr %this.addr, align 8
  %this1 = load ptr, ptr %this.addr, align 8
  store ptr getelementptr inbounds ({ [10 x ptr] }, ptr @_ZTVN6google8protobuf10TextFormat17BaseTextGeneratorE, i32 0, i32 0, i32 2), ptr %this1, align 8
  ret void
}

; Function Attrs: mustprogress nounwind uwtable
define internal void @_ZN6google8protobuf12_GLOBAL__N_123StringBaseTextGeneratorD2Ev(ptr noundef nonnull align 8 dereferenceable(40) %this) unnamed_addr #4 align 2 {
entry:
  %this.addr = alloca ptr, align 8
  store ptr %this, ptr %this.addr, align 8
  %this1 = load ptr, ptr %this.addr, align 8
  store ptr getelementptr inbounds ({ [10 x ptr] }, ptr @_ZTVN6google8protobuf12_GLOBAL__N_123StringBaseTextGeneratorE, i32 0, i32 0, i32 2), ptr %this1, align 8
  %output_ = getelementptr inbounds %"class.google::protobuf::(anonymous namespace)::StringBaseTextGenerator", ptr %this1, i32 0, i32 1
  call void @_ZNSt7__cxx1112basic_stringIcSt11char_traitsIcESaIcEED1Ev(ptr noundef nonnull align 8 dereferenceable(32) %output_) #3
  call void @_ZN6google8protobuf10TextFormat17BaseTextGeneratorD2Ev(ptr noundef nonnull align 8 dereferenceable(8) %this1) #3
  ret void
}

; Function Attrs: mustprogress nounwind uwtable
define internal void @_ZNO6google8protobuf12_GLOBAL__N_123StringBaseTextGenerator7ConsumeB5cxx11Ev(ptr noalias sret(%"class.std::__cxx11::basic_string") align 8 %agg.result, ptr noundef nonnull align 8 dereferenceable(40) %this) #4 align 2 {
entry:
  %result.ptr = alloca ptr, align 8
  %this.addr = alloca ptr, align 8
  store ptr %agg.result, ptr %result.ptr, align 8
  store ptr %this, ptr %this.addr, align 8
  %this1 = load ptr, ptr %this.addr, align 8
  %output_ = getelementptr inbounds %"class.google::protobuf::(anonymous namespace)::StringBaseTextGenerator", ptr %this1, i32 0, i32 1
  call void @_ZNSt7__cxx1112basic_stringIcSt11char_traitsIcESaIcEEC1EOS4_(ptr noundef nonnull align 8 dereferenceable(32) %agg.result, ptr noundef nonnull align 8 dereferenceable(32) %output_) #3
  ret void
}

; Function Attrs: mustprogress uwtable
define void @_ZNK6google8protobuf10TextFormat21FastFieldValuePrinter15PrintMessageEndERKNS0_7MessageEiibPNS1_17BaseTextGeneratorE(ptr noundef nonnull align 8 dereferenceable(8) %this, ptr noundef nonnull align 8 dereferenceable(16) %0, i32 noundef %1, i32 noundef %2, i1 noundef zeroext %single_line_mode, ptr noundef %generator) unnamed_addr #5 align 2 {
entry:
  %this.addr = alloca ptr, align 8
  %.addr = alloca ptr, align 8
  %.addr1 = alloca i32, align 4
  %.addr2 = alloca i32, align 4
  %single_line_mode.addr = alloca i8, align 1
  %generator.addr = alloca ptr, align 8
  store ptr %this, ptr %this.addr, align 8
  store ptr %0, ptr %.addr, align 8
  store i32 %1, ptr %.addr1, align 4
  store i32 %2, ptr %.addr2, align 4
  %frombool = zext i1 %single_line_mode to i8
  store i8 %frombool, ptr %single_line_mode.addr, align 1
  store ptr %generator, ptr %generator.addr, align 8
  %3 = load i8, ptr %single_line_mode.addr, align 1
  %tobool = trunc i8 %3 to i1
  br i1 %tobool, label %if.then, label %if.else

if.then:                                          ; preds = %entry
  %4 = load ptr, ptr %generator.addr, align 8
  call void @_ZN6google8protobuf10TextFormat17BaseTextGenerator12PrintLiteralILm3EEEvRAT__Kc(ptr noundef nonnull align 8 dereferenceable(8) %4, ptr noundef nonnull align 1 dereferenceable(3) @.str.11)
  br label %if.end

if.else:                                          ; preds = %entry
  %5 = load ptr, ptr %generator.addr, align 8
  call void @_ZN6google8protobuf10TextFormat17BaseTextGenerator12PrintLiteralILm3EEEvRAT__Kc(ptr noundef nonnull align 8 dereferenceable(8) %5, ptr noundef nonnull align 1 dereferenceable(3) @.str.12)
  br label %if.end

if.end:                                           ; preds = %if.else, %if.then
  ret void
}

; Function Attrs: mustprogress nounwind uwtable
define internal void @_ZN6google8protobuf12_GLOBAL__N_123StringBaseTextGeneratorC2Ev(ptr noundef nonnull align 8 dereferenceable(40) %this) unnamed_addr #4 align 2 {
entry:
  %this.addr = alloca ptr, align 8
  store ptr %this, ptr %this.addr, align 8
  %this1 = load ptr, ptr %this.addr, align 8
  call void @_ZN6google8protobuf10TextFormat17BaseTextGeneratorC2Ev(ptr noundef nonnull align 8 dereferenceable(8) %this1) #3
  store ptr getelementptr inbounds ({ [10 x ptr] }, ptr @_ZTVN6google8protobuf12_GLOBAL__N_123StringBaseTextGeneratorE, i32 0, i32 0, i32 2), ptr %this1, align 8
  %output_ = getelementptr inbounds %"class.google::protobuf::(anonymous namespace)::StringBaseTextGenerator", ptr %this1, i32 0, i32 1
  call void @_ZNSt7__cxx1112basic_stringIcSt11char_traitsIcESaIcEEC1Ev(ptr noundef nonnull align 8 dereferenceable(32) %output_) #3
  ret void
}

; Function Attrs: mustprogress uwtable
define void @_ZNK6google8protobuf10TextFormat17FieldValuePrinter15PrintMessageEndB5cxx11ERKNS0_7MessageEiib(ptr noalias sret(%"class.std::__cxx11::basic_string") align 8 %agg.result, ptr noundef nonnull align 8 dereferenceable(16) %this, ptr noundef nonnull align 8 dereferenceable(16) %message, i32 noundef %field_index, i32 noundef %field_count, i1 noundef zeroext %single_line_mode) unnamed_addr #5 align 2 personality ptr @__gxx_personality_v0 {
entry:
  %result.ptr = alloca ptr, align 8
  %this.addr = alloca ptr, align 8
  %message.addr = alloca ptr, align 8
  %field_index.addr = alloca i32, align 4
  %field_count.addr = alloca i32, align 4
  %single_line_mode.addr = alloca i8, align 1
  %generator = alloca %"class.google::protobuf::(anonymous namespace)::StringBaseTextGenerator", align 8
  %exn.slot = alloca ptr, align 8
  %ehselector.slot = alloca i32, align 4
  store ptr %agg.result, ptr %result.ptr, align 8
  store ptr %this, ptr %this.addr, align 8
  store ptr %message, ptr %message.addr, align 8
  store i32 %field_index, ptr %field_index.addr, align 4
  store i32 %field_count, ptr %field_count.addr, align 4
  %frombool = zext i1 %single_line_mode to i8
  store i8 %frombool, ptr %single_line_mode.addr, align 1
  %this1 = load ptr, ptr %this.addr, align 8
  call void @_ZN6google8protobuf12_GLOBAL__N_123StringBaseTextGeneratorC2Ev(ptr noundef nonnull align 8 dereferenceable(40) %generator) #3
  %delegate_ = getelementptr inbounds %"class.google::protobuf::TextFormat::FieldValuePrinter", ptr %this1, i32 0, i32 1
  %0 = load ptr, ptr %message.addr, align 8
  %1 = load i32, ptr %field_index.addr, align 4
  %2 = load i32, ptr %field_count.addr, align 4
  %3 = load i8, ptr %single_line_mode.addr, align 1
  %tobool = trunc i8 %3 to i1
  invoke void @_ZNK6google8protobuf10TextFormat21FastFieldValuePrinter15PrintMessageEndERKNS0_7MessageEiibPNS1_17BaseTextGeneratorE(ptr noundef nonnull align 8 dereferenceable(8) %delegate_, ptr noundef nonnull align 8 dereferenceable(16) %0, i32 noundef %1, i32 noundef %2, i1 noundef zeroext %tobool, ptr noundef %generator)
          to label %invoke.cont unwind label %lpad

invoke.cont:                                      ; preds = %entry
  invoke void @_ZNO6google8protobuf12_GLOBAL__N_123StringBaseTextGenerator7ConsumeB5cxx11Ev(ptr sret(%"class.std::__cxx11::basic_string") align 8 %agg.result, ptr noundef nonnull align 8 dereferenceable(40) %generator)
          to label %invoke.cont2 unwind label %lpad

invoke.cont2:                                     ; preds = %invoke.cont
  call void @_ZN6google8protobuf12_GLOBAL__N_123StringBaseTextGeneratorD2Ev(ptr noundef nonnull align 8 dereferenceable(40) %generator) #3
  ret void

lpad:                                             ; preds = %invoke.cont, %entry
  %4 = landingpad { ptr, i32 }
          cleanup
  %5 = extractvalue { ptr, i32 } %4, 0
  store ptr %5, ptr %exn.slot, align 8
  %6 = extractvalue { ptr, i32 } %4, 1
  store i32 %6, ptr %ehselector.slot, align 4
  call void @_ZN6google8protobuf12_GLOBAL__N_123StringBaseTextGeneratorD2Ev(ptr noundef nonnull align 8 dereferenceable(40) %generator) #3
  br label %eh.resume

eh.resume:                                        ; preds = %lpad
  %exn = load ptr, ptr %exn.slot, align 8
  %sel = load i32, ptr %ehselector.slot, align 4
  %lpad.val = insertvalue { ptr, i32 } poison, ptr %exn, 0
  %lpad.val3 = insertvalue { ptr, i32 } %lpad.val, i32 %sel, 1
  resume { ptr, i32 } %lpad.val3
}