; Function Attrs: mustprogress uwtable
define void @_ZNK6google8protobuf10TextFormat17FieldValuePrinter15PrintMessageEndB5cxx11ERKNS0_7MessageEiib(ptr noalias sret(%"class.std::__cxx11::basic_string") align 8 %agg.result, ptr nocapture nonnull readnone align 8 %this, ptr nocapture nonnull readnone align 8 %message, i32 %field_index, i32 %field_count, i1 noundef zeroext %single_line_mode) unnamed_addr #4 align 2 personality ptr @__gxx_personality_v0 {
entry:
  %generator = alloca %"class.google::protobuf::(anonymous namespace)::StringBaseTextGenerator", align 8
  store ptr getelementptr inbounds ({ [10 x ptr] }, ptr @_ZTVN6google8protobuf12_GLOBAL__N_123StringBaseTextGeneratorE, i64 0, i32 0, i64 2), ptr %generator, align 8
  %output_.i = getelementptr inbounds i8, ptr %generator, i64 8
  call void @_ZNSt7__cxx1112basic_stringIcSt11char_traitsIcESaIcEEC1Ev(ptr noundef nonnull align 8 dereferenceable(32) %output_.i) #34
  %vtable.i.i = load ptr, ptr %generator, align 8
  %vfn.i.i = getelementptr inbounds i8, ptr %vtable.i.i, i64 40
  %0 = load ptr, ptr %vfn.i.i, align 8
  %.str.11..str.12.i = select i1 %single_line_mode, ptr @.str.11, ptr @.str.12
  invoke void %0(ptr noundef nonnull align 8 dereferenceable(8) %generator, ptr noundef nonnull %.str.11..str.12.i, i64 noundef 2)
          to label %invoke.cont unwind label %lpad

invoke.cont:                                      ; preds = %entry
  call void @_ZNSt7__cxx1112basic_stringIcSt11char_traitsIcESaIcEEC1EOS4_(ptr noundef nonnull align 8 dereferenceable(32) %agg.result, ptr noundef nonnull align 8 dereferenceable(32) %output_.i) #34
  store ptr getelementptr inbounds ({ [10 x ptr] }, ptr @_ZTVN6google8protobuf12_GLOBAL__N_123StringBaseTextGeneratorE, i64 0, i32 0, i64 2), ptr %generator, align 8
  call void @_ZNSt7__cxx1112basic_stringIcSt11char_traitsIcESaIcEED1Ev(ptr noundef nonnull align 8 dereferenceable(32) %output_.i) #34
  ret void

lpad:                                             ; preds = %entry
  %1 = landingpad { ptr, i32 }
          cleanup
  store ptr getelementptr inbounds ({ [10 x ptr] }, ptr @_ZTVN6google8protobuf12_GLOBAL__N_123StringBaseTextGeneratorE, i64 0, i32 0, i64 2), ptr %generator, align 8
  call void @_ZNSt7__cxx1112basic_stringIcSt11char_traitsIcESaIcEED1Ev(ptr noundef nonnull align 8 dereferenceable(32) %output_.i) #34
  resume { ptr, i32 } %1
}